; ModuleID = '1/2241.cpp'
source_filename = "1/2241.cpp"
target datalayout = "e-m:e-p270:32:32-p271:32:32-p272:64:64-i64:64-f80:128-n8:16:32:64-S128"
target triple = "x86_64-pc-linux-gnu"

%"class.std::ios_base::Init" = type { i8 }
%"class.std::basic_istream" = type { i32 (...)**, i64, %"class.std::basic_ios" }
%"class.std::basic_ios" = type { %"class.std::ios_base", %"class.std::basic_ostream"*, i8, i8, %"class.std::basic_streambuf"*, %"class.std::ctype"*, %"class.std::num_put"*, %"class.std::num_get"* }
%"class.std::ios_base" = type { i32 (...)**, i64, i64, i32, i32, i32, %"struct.std::ios_base::_Callback_list"*, %"struct.std::ios_base::_Words", [8 x %"struct.std::ios_base::_Words"], i32, %"struct.std::ios_base::_Words"*, %"class.std::locale" }
%"struct.std::ios_base::_Callback_list" = type { %"struct.std::ios_base::_Callback_list"*, void (i32, %"class.std::ios_base"*, i32)*, i32, i32 }
%"struct.std::ios_base::_Words" = type { i8*, i64 }
%"class.std::locale" = type { %"class.std::locale::_Impl"* }
%"class.std::locale::_Impl" = type { i32, %"class.std::locale::facet"**, i64, %"class.std::locale::facet"**, i8** }
%"class.std::locale::facet" = type <{ i32 (...)**, i32, [4 x i8] }>
%"class.std::basic_ostream" = type { i32 (...)**, %"class.std::basic_ios" }
%"class.std::basic_streambuf" = type { i32 (...)**, i8*, i8*, i8*, i8*, i8*, i8*, %"class.std::locale" }
%"class.std::ctype" = type <{ %"class.std::locale::facet.base", [4 x i8], %struct.__locale_struct*, i8, [7 x i8], i32*, i32*, i16*, i8, [256 x i8], [256 x i8], i8, [6 x i8] }>
%"class.std::locale::facet.base" = type <{ i32 (...)**, i32 }>
%struct.__locale_struct = type { [13 x %struct.__locale_data*], i16*, i32*, i32*, [13 x i8*] }
%struct.__locale_data = type opaque
%"class.std::num_put" = type { %"class.std::locale::facet.base", [4 x i8] }
%"class.std::num_get" = type { %"class.std::locale::facet.base", [4 x i8] }

@_ZStL8__ioinit = internal global %"class.std::ios_base::Init" zeroinitializer, align 1
@__dso_handle = external hidden global i8
@sum = dso_local global i32 0, align 4
@_ZSt3cin = external dso_local global %"class.std::basic_istream", align 8
@_ZSt4cout = external dso_local global %"class.std::basic_ostream", align 8
@llvm.global_ctors = appending global [1 x { i32, void ()*, i8* }] [{ i32, void ()*, i8* } { i32 65535, void ()* @_GLOBAL__sub_I_2241.cpp, i8* null }]

; Function Attrs: noinline uwtable
define internal void @__cxx_global_var_init() #0 section ".text.startup" {
  call void @_ZNSt8ios_base4InitC1Ev(%"class.std::ios_base::Init"* @_ZStL8__ioinit)
  %1 = call i32 @__cxa_atexit(void (i8*)* bitcast (void (%"class.std::ios_base::Init"*)* @_ZNSt8ios_base4InitD1Ev to void (i8*)*), i8* getelementptr inbounds (%"class.std::ios_base::Init", %"class.std::ios_base::Init"* @_ZStL8__ioinit, i32 0, i32 0), i8* @__dso_handle) #3
  ret void
}

declare dso_local void @_ZNSt8ios_base4InitC1Ev(%"class.std::ios_base::Init"*) unnamed_addr #1

; Function Attrs: nounwind
declare dso_local void @_ZNSt8ios_base4InitD1Ev(%"class.std::ios_base::Init"*) unnamed_addr #2

; Function Attrs: nounwind
declare dso_local i32 @__cxa_atexit(void (i8*)*, i8*, i8*) #3

; Function Attrs: noinline uwtable
define dso_local void @_Z1fii(i32 %0, i32 %1) #0 {
  %3 = alloca i32, align 4
  %4 = alloca i32, align 4
  store i32 %0, i32* %3, align 4
  store i32 %1, i32* %4, align 4
  %5 = load i32, i32* %3, align 4
  %6 = icmp eq i32 %5, 1
  br i1 %6, label %7, label %10

7:                                                ; preds = %2
  %8 = load i32, i32* @sum, align 4
  %9 = add nsw i32 %8, 1
  store i32 %9, i32* @sum, align 4
  br label %30

10:                                               ; preds = %2
  br label %11

11:                                               ; preds = %26, %10
  %12 = load i32, i32* %4, align 4
  %13 = load i32, i32* %3, align 4
  %14 = icmp sle i32 %12, %13
  br i1 %14, label %15, label %29

15:                                               ; preds = %11
  %16 = load i32, i32* %3, align 4
  %17 = load i32, i32* %4, align 4
  %18 = srem i32 %16, %17
  %19 = icmp eq i32 %18, 0
  br i1 %19, label %20, label %25

20:                                               ; preds = %15
  %21 = load i32, i32* %3, align 4
  %22 = load i32, i32* %4, align 4
  %23 = sdiv i32 %21, %22
  %24 = load i32, i32* %4, align 4
  call void @_Z1fii(i32 %23, i32 %24)
  br label %25

25:                                               ; preds = %20, %15
  br label %26

26:                                               ; preds = %25
  %27 = load i32, i32* %4, align 4
  %28 = add nsw i32 %27, 1
  store i32 %28, i32* %4, align 4
  br label %11

29:                                               ; preds = %11
  br label %30

30:                                               ; preds = %29, %7
  ret void
}

; Function Attrs: noinline norecurse uwtable
define dso_local i32 @main() #4 {
  %1 = alloca i32, align 4
  %2 = alloca i32, align 4
  %3 = alloca i32, align 4
  %4 = alloca i32, align 4
  %5 = alloca i32, align 4
  store i32 0, i32* %1, align 4
  %6 = call dereferenceable(280) %"class.std::basic_istream"* @_ZNSirsERi(%"class.std::basic_istream"* @_ZSt3cin, i32* dereferenceable(4) %2)
  br label %7

7:                                                ; preds = %35, %0
  %8 = load i32, i32* %2, align 4
  %9 = icmp sgt i32 %8, 0
  br i1 %9, label %10, label %41

10:                                               ; preds = %7
  store i32 0, i32* %3, align 4
  store i32 1, i32* %5, align 4
  %11 = call dereferenceable(280) %"class.std::basic_istream"* @_ZNSirsERi(%"class.std::basic_istream"* @_ZSt3cin, i32* dereferenceable(4) %3)
  store i32 2, i32* %4, align 4
  br label %12

12:                                               ; preds = %32, %10
  %13 = load i32, i32* %4, align 4
  %14 = load i32, i32* %4, align 4
  %15 = mul nsw i32 %13, %14
  %16 = load i32, i32* %3, align 4
  %17 = icmp slt i32 %15, %16
  br i1 %17, label %18, label %35

18:                                               ; preds = %12
  %19 = load i32, i32* %3, align 4
  %20 = load i32, i32* %4, align 4
  %21 = srem i32 %19, %20
  %22 = icmp eq i32 %21, 0
  br i1 %22, label %23, label %31

23:                                               ; preds = %18
  store i32 0, i32* @sum, align 4
  %24 = load i32, i32* %3, align 4
  %25 = load i32, i32* %4, align 4
  %26 = sdiv i32 %24, %25
  %27 = load i32, i32* %4, align 4
  call void @_Z1fii(i32 %26, i32 %27)
  %28 = load i32, i32* @sum, align 4
  %29 = load i32, i32* %5, align 4
  %30 = add nsw i32 %29, %28
  store i32 %30, i32* %5, align 4
  br label %31

31:                                               ; preds = %23, %18
  br label %32

32:                                               ; preds = %31
  %33 = load i32, i32* %4, align 4
  %34 = add nsw i32 %33, 1
  store i32 %34, i32* %4, align 4
  br label %12

35:                                               ; preds = %12
  %36 = load i32, i32* %5, align 4
  %37 = call dereferenceable(272) %"class.std::basic_ostream"* @_ZNSolsEi(%"class.std::basic_ostream"* @_ZSt4cout, i32 %36)
  %38 = call dereferenceable(272) %"class.std::basic_ostream"* @_ZNSolsEPFRSoS_E(%"class.std::basic_ostream"* %37, %"class.std::basic_ostream"* (%"class.std::basic_ostream"*)* @_ZSt4endlIcSt11char_traitsIcEERSt13basic_ostreamIT_T0_ES6_)
  %39 = load i32, i32* %2, align 4
  %40 = add nsw i32 %39, -1
  store i32 %40, i32* %2, align 4
  br label %7

41:                                               ; preds = %7
  ret i32 0
}

declare dso_local dereferenceable(280) %"class.std::basic_istream"* @_ZNSirsERi(%"class.std::basic_istream"*, i32* dereferenceable(4)) #1

declare dso_local dereferenceable(272) %"class.std::basic_ostream"* @_ZNSolsEi(%"class.std::basic_ostream"*, i32) #1

declare dso_local dereferenceable(272) %"class.std::basic_ostream"* @_ZNSolsEPFRSoS_E(%"class.std::basic_ostream"*, %"class.std::basic_ostream"* (%"class.std::basic_ostream"*)*) #1

declare dso_local dereferenceable(272) %"class.std::basic_ostream"* @_ZSt4endlIcSt11char_traitsIcEERSt13basic_ostreamIT_T0_ES6_(%"class.std::basic_ostream"* dereferenceable(272)) #1

; Function Attrs: noinline uwtable
define internal void @_GLOBAL__sub_I_2241.cpp() #0 section ".text.startup" {
  call void @__cxx_global_var_init()
  ret void
}


!llvm.module.flags = !{!0}
!llvm.ident = !{!1}

!0 = !{i32 1, !"wchar_size", i32 4}
!1 = !{!"clang version 10.0.0-4ubuntu1 "}
